target datalayout = "e-m:e-p270:32:32-p271:32:32-p272:64:64-i64:64-i128:128-f80:128-n8:16:32:64-S128"
target triple = "x86_64-pc-linux-gnu"

%struct.sha3_ctx = type { [25 x i64], [24 x i64], i32, i32 }

; Function Attrs: nounwind uwtable
define dso_local void @rhash_sha3_final(ptr noundef %0, ptr noundef %1) #0 {
  %3 = alloca ptr, align 8
  %4 = alloca ptr, align 8
  %5 = alloca i64, align 8
  %6 = alloca i64, align 8
  store ptr %0, ptr %3, align 8, !tbaa !4
  store ptr %1, ptr %4, align 8, !tbaa !13
  call void @llvm.lifetime.start.p0(i64 8, ptr %5) #4
  %7 = load ptr, ptr %3, align 8, !tbaa !4
  %8 = getelementptr inbounds nuw %struct.sha3_ctx, ptr %7, i32 0, i32 3
  %9 = load i32, ptr %8, align 4, !tbaa !11
  %10 = udiv i32 %9, 2
  %11 = sub i32 100, %10
  %12 = zext i32 %11 to i64
  store i64 %12, ptr %5, align 8, !tbaa !15
  call void @llvm.lifetime.start.p0(i64 8, ptr %6) #4
  %13 = load ptr, ptr %3, align 8, !tbaa !4
  %14 = getelementptr inbounds nuw %struct.sha3_ctx, ptr %13, i32 0, i32 3
  %15 = load i32, ptr %14, align 4, !tbaa !11
  %16 = zext i32 %15 to i64
  store i64 %16, ptr %6, align 8, !tbaa !15
  %17 = load ptr, ptr %3, align 8, !tbaa !4
  %18 = getelementptr inbounds nuw %struct.sha3_ctx, ptr %17, i32 0, i32 2
  %19 = load i32, ptr %18, align 8, !tbaa !17
  %20 = and i32 %19, -2147483648
  %21 = icmp ne i32 %20, 0
  br i1 %21, label %68, label %22

22:                                               ; preds = %2
  %23 = load ptr, ptr %3, align 8, !tbaa !4
  %24 = getelementptr inbounds nuw %struct.sha3_ctx, ptr %23, i32 0, i32 1
  %25 = getelementptr inbounds [24 x i64], ptr %24, i64 0, i64 0
  %26 = load ptr, ptr %3, align 8, !tbaa !4
  %27 = getelementptr inbounds nuw %struct.sha3_ctx, ptr %26, i32 0, i32 2
  %28 = load i32, ptr %27, align 8, !tbaa !17
  %29 = zext i32 %28 to i64
  %30 = getelementptr inbounds nuw i8, ptr %25, i64 %29
  %31 = load i64, ptr %6, align 8, !tbaa !15
  %32 = load ptr, ptr %3, align 8, !tbaa !4
  %33 = getelementptr inbounds nuw %struct.sha3_ctx, ptr %32, i32 0, i32 2
  %34 = load i32, ptr %33, align 8, !tbaa !17
  %35 = zext i32 %34 to i64
  %36 = sub i64 %31, %35
  call void @llvm.memset.p0.i64(ptr align 1 %30, i8 0, i64 %36, i1 false)
  %37 = load ptr, ptr %3, align 8, !tbaa !4
  %38 = getelementptr inbounds nuw %struct.sha3_ctx, ptr %37, i32 0, i32 1
  %39 = getelementptr inbounds [24 x i64], ptr %38, i64 0, i64 0
  %40 = load ptr, ptr %3, align 8, !tbaa !4
  %41 = getelementptr inbounds nuw %struct.sha3_ctx, ptr %40, i32 0, i32 2
  %42 = load i32, ptr %41, align 8, !tbaa !17
  %43 = zext i32 %42 to i64
  %44 = getelementptr inbounds nuw i8, ptr %39, i64 %43
  %45 = load i8, ptr %44, align 1, !tbaa !22
  %46 = sext i8 %45 to i32
  %47 = or i32 %46, 6
  %48 = trunc i32 %47 to i8
  store i8 %48, ptr %44, align 1, !tbaa !22
  %49 = load ptr, ptr %3, align 8, !tbaa !4
  %50 = getelementptr inbounds nuw %struct.sha3_ctx, ptr %49, i32 0, i32 1
  %51 = getelementptr inbounds [24 x i64], ptr %50, i64 0, i64 0
  %52 = load i64, ptr %6, align 8, !tbaa !15
  %53 = sub i64 %52, 1
  %54 = getelementptr inbounds nuw i8, ptr %51, i64 %53
  %55 = load i8, ptr %54, align 1, !tbaa !22
  %56 = sext i8 %55 to i32
  %57 = or i32 %56, 128
  %58 = trunc i32 %57 to i8
  store i8 %58, ptr %54, align 1, !tbaa !22
  %59 = load ptr, ptr %3, align 8, !tbaa !4
  %60 = getelementptr inbounds nuw %struct.sha3_ctx, ptr %59, i32 0, i32 0
  %61 = getelementptr inbounds [25 x i64], ptr %60, i64 0, i64 0
  %62 = load ptr, ptr %3, align 8, !tbaa !4
  %63 = getelementptr inbounds nuw %struct.sha3_ctx, ptr %62, i32 0, i32 1
  %64 = getelementptr inbounds [24 x i64], ptr %63, i64 0, i64 0
  %65 = load i64, ptr %6, align 8, !tbaa !15
  call void @rhash_sha3_process_block(ptr noundef %61, ptr noundef %64, i64 noundef %65)
  %66 = load ptr, ptr %3, align 8, !tbaa !4
  %67 = getelementptr inbounds nuw %struct.sha3_ctx, ptr %66, i32 0, i32 2
  store i32 -2147483648, ptr %67, align 8, !tbaa !17
  br label %68

68:                                               ; preds = %22, %2
  %69 = load ptr, ptr %4, align 8, !tbaa !13
  %70 = icmp ne ptr %69, null
  br i1 %70, label %71, label %77

71:                                               ; preds = %68
  %72 = load ptr, ptr %4, align 8, !tbaa !13
  %73 = load ptr, ptr %3, align 8, !tbaa !4
  %74 = getelementptr inbounds nuw %struct.sha3_ctx, ptr %73, i32 0, i32 0
  %75 = getelementptr inbounds [25 x i64], ptr %74, i64 0, i64 0
  %76 = load i64, ptr %5, align 8, !tbaa !15
  call void @llvm.memcpy.p0.p0.i64(ptr align 1 %72, ptr align 8 %75, i64 %76, i1 false)
  br label %77

77:                                               ; preds = %71, %68
  call void @llvm.lifetime.end.p0(i64 8, ptr %6) #4
  call void @llvm.lifetime.end.p0(i64 8, ptr %5) #4
  ret void
}