; Function Attrs: nofree norecurse nosync nounwind memory(argmem: readwrite) uwtable
define dso_local void @rhash_sha3_final(ptr noundef %0, ptr noundef writeonly %1) local_unnamed_addr #3 {
  %3 = getelementptr inbounds nuw i8, ptr %0, i64 396
  %4 = load i32, ptr %3, align 4, !tbaa !4
  %5 = lshr i32 %4, 1
  %6 = sub nsw i32 100, %5
  %7 = zext i32 %6 to i64
  %8 = getelementptr inbounds nuw i8, ptr %0, i64 392
  %9 = load i32, ptr %8, align 8, !tbaa !9
  %.not = icmp sgt i32 %9, -1
  br i1 %.not, label %10, label %25

10:                                               ; preds = %2
  %11 = zext i32 %4 to i64
  %12 = getelementptr inbounds nuw i8, ptr %0, i64 200
  %13 = zext nneg i32 %9 to i64
  %14 = getelementptr inbounds nuw i8, ptr %12, i64 %13
  %15 = sub nsw i64 %11, %13
  tail call void @llvm.memset.p0.i64(ptr nonnull align 1 %14, i8 0, i64 %15, i1 false)
  %16 = load i32, ptr %8, align 8, !tbaa !9
  %17 = zext i32 %16 to i64
  %18 = getelementptr inbounds nuw i8, ptr %12, i64 %17
  %19 = load i8, ptr %18, align 1, !tbaa !15
  %20 = or i8 %19, 6
  store i8 %20, ptr %18, align 1, !tbaa !15
  %21 = getelementptr i8, ptr %12, i64 %11
  %22 = getelementptr i8, ptr %21, i64 -1
  %23 = load i8, ptr %22, align 1, !tbaa !15
  %24 = or i8 %23, -128
  store i8 %24, ptr %22, align 1, !tbaa !15
  tail call fastcc void @rhash_sha3_process_block(ptr noundef nonnull %0, ptr noundef nonnull %12, i64 noundef %11)
  store i32 -2147483648, ptr %8, align 8, !tbaa !9
  br label %25

25:                                               ; preds = %10, %2
  %.not18 = icmp eq ptr %1, null
  br i1 %.not18, label %27, label %26

26:                                               ; preds = %25
  tail call void @llvm.memcpy.p0.p0.i64(ptr nonnull align 1 %1, ptr nonnull align 8 %0, i64 %7, i1 false)
  br label %27

27:                                               ; preds = %26, %25
  ret void
}